target datalayout = "e-m:e-p270:32:32-p271:32:32-p272:64:64-i64:64-i128:128-f80:128-n8:16:32:64-S128"
target triple = "x86_64-pc-linux-gnu"

%struct._packet_info = type { ptr, ptr, i32, i32, %struct.nstime_t, %struct.nstime_t, %struct.nstime_t, i8, ptr, ptr, ptr, ptr, %struct._address, %struct._address, %struct._address, %struct._address, %struct._address, %struct._address, i32, ptr, i8, [3 x i8], %struct.anon, i32, i32, i32, i32, ptr, i8, ptr, ptr, i16, i16, i32, i32, i16, i32, i32, ptr, ptr, ptr, i8, i8, i16, i16, i16, i32, i16, i16, ptr, ptr, ptr, ptr, ptr, i32, i32 }
%struct.nstime_t = type { i64, i32 }
%struct._address = type { i32, i32, ptr, ptr }
%struct.anon = type { i8, [3 x i8] }
%struct.rtmpt_conv = type { [2 x ptr], [2 x ptr], [2 x ptr], [2 x ptr], [2 x ptr], [2 x ptr] }

@proto_rtmpt = internal global i32 0, align 4

; Function Attrs: null_pointer_is_valid sspstrong uwtable
define internal i32 @dissect_rtmpt_http(ptr noundef %0, ptr noundef %1, ptr noundef %2, ptr noundef %3) #0 {
  %5 = alloca i32, align 4
  %6 = alloca ptr, align 8
  %7 = alloca ptr, align 8
  %8 = alloca ptr, align 8
  %9 = alloca ptr, align 8
  %10 = alloca ptr, align 8
  %11 = alloca ptr, align 8
  %12 = alloca i32, align 4
  %13 = alloca i32, align 4
  %14 = alloca i32, align 4
  %15 = alloca i32, align 4
  %16 = alloca i32, align 4
  %17 = alloca i32, align 4
  %18 = alloca ptr, align 8
  store ptr %0, ptr %6, align 8
  store ptr %1, ptr %7, align 8
  store ptr %2, ptr %8, align 8
  store ptr %3, ptr %9, align 8
  call void @llvm.lifetime.start.p0(i64 8, ptr %10) #12
  call void @llvm.lifetime.start.p0(i64 8, ptr %11) #12
  call void @llvm.lifetime.start.p0(i64 4, ptr %12) #12
  call void @llvm.lifetime.start.p0(i64 4, ptr %13) #12
  call void @llvm.lifetime.start.p0(i64 4, ptr %14) #12
  call void @llvm.lifetime.start.p0(i64 4, ptr %15) #12
  call void @llvm.lifetime.start.p0(i64 4, ptr %16) #12
  store i32 0, ptr %15, align 4
  %19 = load ptr, ptr %6, align 8
  %20 = call i32 @tvb_reported_length_remaining(ptr noundef %19, i32 noundef 0)
  store i32 %20, ptr %16, align 4
  %21 = load ptr, ptr %7, align 8
  %22 = getelementptr inbounds nuw %struct._packet_info, ptr %21, i32 0, i32 24
  %23 = load i32, ptr %22, align 4
  %24 = load ptr, ptr %7, align 8
  %25 = getelementptr inbounds nuw %struct._packet_info, ptr %24, i32 0, i32 26
  %26 = load i32, ptr %25, align 4
  %27 = icmp eq i32 %23, %26
  %28 = zext i1 %27 to i32
  store i32 %28, ptr %12, align 4
  %29 = load i32, ptr %12, align 4
  %30 = icmp ne i32 %29, 0
  br i1 %30, label %31, label %69

31:                                               ; preds = %4
  %32 = load ptr, ptr %7, align 8
  %33 = getelementptr inbounds nuw %struct._packet_info, ptr %32, i32 0, i32 3
  %34 = load i32, ptr %33, align 4
  %35 = load ptr, ptr %7, align 8
  %36 = getelementptr inbounds nuw %struct._packet_info, ptr %35, i32 0, i32 17
  %37 = load ptr, ptr %7, align 8
  %38 = getelementptr inbounds nuw %struct._packet_info, ptr %37, i32 0, i32 16
  %39 = load ptr, ptr %7, align 8
  %40 = getelementptr inbounds nuw %struct._packet_info, ptr %39, i32 0, i32 23
  %41 = load i32, ptr %40, align 8
  %42 = call i32 @conversation_pt_to_conversation_type(i32 noundef %41)
  %43 = load ptr, ptr %7, align 8
  %44 = getelementptr inbounds nuw %struct._packet_info, ptr %43, i32 0, i32 24
  %45 = load i32, ptr %44, align 4
  %46 = call ptr @find_conversation(i32 noundef %34, ptr noundef %36, ptr noundef %38, i32 noundef %42, i32 noundef 0, i32 noundef %45, i32 noundef 0)
  store ptr %46, ptr %10, align 8
  %47 = load ptr, ptr %10, align 8
  %48 = icmp ne ptr %47, null
  br i1 %48, label %68, label %49

49:                                               ; preds = %31
  br label %50

50:                                               ; preds = %49
  br label %51

51:                                               ; preds = %50
  br label %52

52:                                               ; preds = %51
  %53 = load ptr, ptr %7, align 8
  %54 = getelementptr inbounds nuw %struct._packet_info, ptr %53, i32 0, i32 3
  %55 = load i32, ptr %54, align 4
  %56 = load ptr, ptr %7, align 8
  %57 = getelementptr inbounds nuw %struct._packet_info, ptr %56, i32 0, i32 17
  %58 = load ptr, ptr %7, align 8
  %59 = getelementptr inbounds nuw %struct._packet_info, ptr %58, i32 0, i32 16
  %60 = load ptr, ptr %7, align 8
  %61 = getelementptr inbounds nuw %struct._packet_info, ptr %60, i32 0, i32 23
  %62 = load i32, ptr %61, align 8
  %63 = call i32 @conversation_pt_to_conversation_type(i32 noundef %62)
  %64 = load ptr, ptr %7, align 8
  %65 = getelementptr inbounds nuw %struct._packet_info, ptr %64, i32 0, i32 24
  %66 = load i32, ptr %65, align 4
  %67 = call ptr @conversation_new(i32 noundef %55, ptr noundef %57, ptr noundef %59, i32 noundef %63, i32 noundef 0, i32 noundef %66, i32 noundef 0)
  store ptr %67, ptr %10, align 8
  br label %68

68:                                               ; preds = %52, %31
  br label %107

69:                                               ; preds = %4
  %70 = load ptr, ptr %7, align 8
  %71 = getelementptr inbounds nuw %struct._packet_info, ptr %70, i32 0, i32 3
  %72 = load i32, ptr %71, align 4
  %73 = load ptr, ptr %7, align 8
  %74 = getelementptr inbounds nuw %struct._packet_info, ptr %73, i32 0, i32 16
  %75 = load ptr, ptr %7, align 8
  %76 = getelementptr inbounds nuw %struct._packet_info, ptr %75, i32 0, i32 17
  %77 = load ptr, ptr %7, align 8
  %78 = getelementptr inbounds nuw %struct._packet_info, ptr %77, i32 0, i32 23
  %79 = load i32, ptr %78, align 8
  %80 = call i32 @conversation_pt_to_conversation_type(i32 noundef %79)
  %81 = load ptr, ptr %7, align 8
  %82 = getelementptr inbounds nuw %struct._packet_info, ptr %81, i32 0, i32 25
  %83 = load i32, ptr %82, align 8
  %84 = call ptr @find_conversation(i32 noundef %72, ptr noundef %74, ptr noundef %76, i32 noundef %80, i32 noundef 0, i32 noundef %83, i32 noundef 0)
  store ptr %84, ptr %10, align 8
  %85 = load ptr, ptr %10, align 8
  %86 = icmp ne ptr %85, null
  br i1 %86, label %106, label %87

87:                                               ; preds = %69
  br label %88

88:                                               ; preds = %87
  br label %89

89:                                               ; preds = %88
  br label %90

90:                                               ; preds = %89
  %91 = load ptr, ptr %7, align 8
  %92 = getelementptr inbounds nuw %struct._packet_info, ptr %91, i32 0, i32 3
  %93 = load i32, ptr %92, align 4
  %94 = load ptr, ptr %7, align 8
  %95 = getelementptr inbounds nuw %struct._packet_info, ptr %94, i32 0, i32 16
  %96 = load ptr, ptr %7, align 8
  %97 = getelementptr inbounds nuw %struct._packet_info, ptr %96, i32 0, i32 17
  %98 = load ptr, ptr %7, align 8
  %99 = getelementptr inbounds nuw %struct._packet_info, ptr %98, i32 0, i32 23
  %100 = load i32, ptr %99, align 8
  %101 = call i32 @conversation_pt_to_conversation_type(i32 noundef %100)
  %102 = load ptr, ptr %7, align 8
  %103 = getelementptr inbounds nuw %struct._packet_info, ptr %102, i32 0, i32 25
  %104 = load i32, ptr %103, align 8
  %105 = call ptr @conversation_new(i32 noundef %93, ptr noundef %95, ptr noundef %97, i32 noundef %101, i32 noundef 0, i32 noundef %104, i32 noundef 0)
  store ptr %105, ptr %10, align 8
  br label %106

106:                                              ; preds = %90, %69
  br label %107

107:                                              ; preds = %106, %68
  %108 = load ptr, ptr %10, align 8
  %109 = load i32, ptr @proto_rtmpt, align 4
  %110 = call ptr @conversation_get_proto_data(ptr noundef %108, i32 noundef %109)
  store ptr %110, ptr %11, align 8
  %111 = load ptr, ptr %11, align 8
  %112 = icmp ne ptr %111, null
  br i1 %112, label %116, label %113

113:                                              ; preds = %107
  %114 = load ptr, ptr %10, align 8
  %115 = call ptr @rtmpt_init_rconv(ptr noundef %114)
  store ptr %115, ptr %11, align 8
  br label %116

116:                                              ; preds = %113, %107
  %117 = load ptr, ptr %11, align 8
  %118 = getelementptr inbounds nuw %struct.rtmpt_conv, ptr %117, i32 0, i32 0
  %119 = load i32, ptr %12, align 4
  %120 = xor i32 %119, 1
  %121 = sext i32 %120 to i64
  %122 = getelementptr [2 x ptr], ptr %118, i64 0, i64 %121
  %123 = load ptr, ptr %122, align 8
  %124 = load ptr, ptr %7, align 8
  %125 = getelementptr inbounds nuw %struct._packet_info, ptr %124, i32 0, i32 3
  %126 = load i32, ptr %125, align 4
  %127 = call ptr @wmem_tree_lookup32_le(ptr noundef %123, i32 noundef %126)
  %128 = ptrtoint ptr %127 to i64
  %129 = trunc i64 %128 to i32
  %130 = add i32 %129, 1
  store i32 %130, ptr %14, align 4
  %131 = load i32, ptr %12, align 4
  %132 = icmp eq i32 %131, 1
  br i1 %132, label %133, label %144

133:                                              ; preds = %116
  %134 = load i32, ptr %14, align 4
  %135 = icmp ult i32 %134, 2
  br i1 %135, label %136, label %144

136:                                              ; preds = %133
  %137 = load i32, ptr %16, align 4
  %138 = icmp eq i32 %137, 17
  br i1 %138, label %139, label %144

139:                                              ; preds = %136
  %140 = load i32, ptr %15, align 4
  %141 = add i32 %140, 17
  store i32 %141, ptr %15, align 4
  %142 = load i32, ptr %16, align 4
  %143 = sub i32 %142, 17
  store i32 %143, ptr %16, align 4
  br label %156

144:                                              ; preds = %136, %133, %116
  %145 = load i32, ptr %12, align 4
  %146 = icmp ne i32 %145, 0
  br i1 %146, label %150, label %147

147:                                              ; preds = %144
  %148 = load i32, ptr %16, align 4
  %149 = icmp eq i32 %148, 1
  br i1 %149, label %150, label %155

150:                                              ; preds = %147, %144
  %151 = load i32, ptr %15, align 4
  %152 = add i32 %151, 1
  store i32 %152, ptr %15, align 4
  %153 = load i32, ptr %16, align 4
  %154 = add i32 %153, -1
  store i32 %154, ptr %16, align 4
  br label %155

155:                                              ; preds = %150, %147
  br label %156

156:                                              ; preds = %155, %139
  %157 = load ptr, ptr %11, align 8
  %158 = getelementptr inbounds nuw %struct.rtmpt_conv, ptr %157, i32 0, i32 0
  %159 = load i32, ptr %12, align 4
  %160 = sext i32 %159 to i64
  %161 = getelementptr [2 x ptr], ptr %158, i64 0, i64 %160
  %162 = load ptr, ptr %161, align 8
  %163 = load ptr, ptr %7, align 8
  %164 = getelementptr inbounds nuw %struct._packet_info, ptr %163, i32 0, i32 3
  %165 = load i32, ptr %164, align 4
  %166 = call ptr @wmem_tree_lookup32(ptr noundef %162, i32 noundef %165)
  %167 = ptrtoint ptr %166 to i64
  %168 = trunc i64 %167 to i32
  store i32 %168, ptr %13, align 4
  %169 = load i32, ptr %13, align 4
  %170 = icmp eq i32 %169, 0
  br i1 %170, label %171, label %199

171:                                              ; preds = %156
  %172 = load ptr, ptr %11, align 8
  %173 = getelementptr inbounds nuw %struct.rtmpt_conv, ptr %172, i32 0, i32 0
  %174 = load i32, ptr %12, align 4
  %175 = sext i32 %174 to i64
  %176 = getelementptr [2 x ptr], ptr %173, i64 0, i64 %175
  %177 = load ptr, ptr %176, align 8
  %178 = load ptr, ptr %7, align 8
  %179 = getelementptr inbounds nuw %struct._packet_info, ptr %178, i32 0, i32 3
  %180 = load i32, ptr %179, align 4
  %181 = call ptr @wmem_tree_lookup32_le(ptr noundef %177, i32 noundef %180)
  %182 = ptrtoint ptr %181 to i64
  %183 = trunc i64 %182 to i32
  store i32 %183, ptr %13, align 4
  %184 = load i32, ptr %16, align 4
  %185 = load i32, ptr %13, align 4
  %186 = add i32 %185, %184
  store i32 %186, ptr %13, align 4
  %187 = load ptr, ptr %11, align 8
  %188 = getelementptr inbounds nuw %struct.rtmpt_conv, ptr %187, i32 0, i32 0
  %189 = load i32, ptr %12, align 4
  %190 = sext i32 %189 to i64
  %191 = getelementptr [2 x ptr], ptr %188, i64 0, i64 %190
  %192 = load ptr, ptr %191, align 8
  %193 = load ptr, ptr %7, align 8
  %194 = getelementptr inbounds nuw %struct._packet_info, ptr %193, i32 0, i32 3
  %195 = load i32, ptr %194, align 4
  %196 = load i32, ptr %13, align 4
  %197 = zext i32 %196 to i64
  %198 = inttoptr i64 %197 to ptr
  call void @wmem_tree_insert32(ptr noundef %192, i32 noundef %195, ptr noundef %198)
  br label %199

199:                                              ; preds = %171, %156
  %200 = load i32, ptr %16, align 4
  %201 = sub i32 %200, 1
  %202 = load i32, ptr %13, align 4
  %203 = sub i32 %202, %201
  store i32 %203, ptr %13, align 4
  br label %204

204:                                              ; preds = %199
  br label %205

205:                                              ; preds = %204
  br label %206

206:                                              ; preds = %205
  %207 = load i32, ptr %16, align 4
  %208 = icmp slt i32 %207, 1
  br i1 %208, label %209, label %211

209:                                              ; preds = %206
  %210 = load i32, ptr %15, align 4
  store i32 %210, ptr %5, align 4
  store i32 1, ptr %17, align 4
  br label %237

211:                                              ; preds = %206
  %212 = load i32, ptr %15, align 4
  %213 = icmp ugt i32 %212, 0
  br i1 %213, label %214, label %226

214:                                              ; preds = %211
  call void @llvm.lifetime.start.p0(i64 8, ptr %18) #12
  %215 = load ptr, ptr %6, align 8
  %216 = load i32, ptr %15, align 4
  %217 = load i32, ptr %16, align 4
  %218 = call ptr @tvb_new_subset_length(ptr noundef %215, i32 noundef %216, i32 noundef %217)
  store ptr %218, ptr %18, align 8
  %219 = load ptr, ptr %18, align 8
  %220 = load ptr, ptr %7, align 8
  %221 = load ptr, ptr %8, align 8
  %222 = load ptr, ptr %11, align 8
  %223 = load i32, ptr %12, align 4
  %224 = load i32, ptr %13, align 4
  %225 = load i32, ptr %14, align 4
  call void @dissect_rtmpt_common(ptr noundef %219, ptr noundef %220, ptr noundef %221, ptr noundef %222, i32 noundef %223, i32 noundef %224, i32 noundef %225)
  call void @llvm.lifetime.end.p0(i64 8, ptr %18) #12
  br label %234

226:                                              ; preds = %211
  %227 = load ptr, ptr %6, align 8
  %228 = load ptr, ptr %7, align 8
  %229 = load ptr, ptr %8, align 8
  %230 = load ptr, ptr %11, align 8
  %231 = load i32, ptr %12, align 4
  %232 = load i32, ptr %13, align 4
  %233 = load i32, ptr %14, align 4
  call void @dissect_rtmpt_common(ptr noundef %227, ptr noundef %228, ptr noundef %229, ptr noundef %230, i32 noundef %231, i32 noundef %232, i32 noundef %233)
  br label %234

234:                                              ; preds = %226, %214
  %235 = load ptr, ptr %6, align 8
  %236 = call i32 @tvb_captured_length(ptr noundef %235)
  store i32 %236, ptr %5, align 4
  store i32 1, ptr %17, align 4
  br label %237

237:                                              ; preds = %234, %209
  call void @llvm.lifetime.end.p0(i64 4, ptr %16) #12
  call void @llvm.lifetime.end.p0(i64 4, ptr %15) #12
  call void @llvm.lifetime.end.p0(i64 4, ptr %14) #12
  call void @llvm.lifetime.end.p0(i64 4, ptr %13) #12
  call void @llvm.lifetime.end.p0(i64 4, ptr %12) #12
  call void @llvm.lifetime.end.p0(i64 8, ptr %11) #12
  call void @llvm.lifetime.end.p0(i64 8, ptr %10) #12
  %238 = load i32, ptr %5, align 4
  ret i32 %238
}