; Function Attrs: null_pointer_is_valid sspstrong uwtable
define internal i32 @dissect_rtmpt_http(ptr noundef %0, ptr noundef %1, ptr noundef %2, ptr readnone captures(none) %3) #0 {
  %5 = tail call i32 @tvb_reported_length_remaining(ptr noundef %0, i32 noundef 0)
  %6 = getelementptr inbounds nuw i8, ptr %1, i64 284
  %7 = load i32, ptr %6, align 4
  %8 = getelementptr inbounds nuw i8, ptr %1, i64 292
  %9 = load i32, ptr %8, align 4
  %10 = icmp eq i32 %7, %9
  %11 = zext i1 %10 to i32
  %12 = getelementptr inbounds nuw i8, ptr %1, i64 20
  %13 = load i32, ptr %12, align 4
  %14 = getelementptr inbounds nuw i8, ptr %1, i64 280
  %15 = load i32, ptr %14, align 8
  %16 = tail call i32 @conversation_pt_to_conversation_type(i32 noundef %15)
  br i1 %10, label %17, label %28

17:                                               ; preds = %4
  %18 = getelementptr inbounds nuw i8, ptr %1, i64 232
  %19 = getelementptr inbounds nuw i8, ptr %1, i64 208
  %20 = load i32, ptr %6, align 4
  %21 = tail call ptr @find_conversation(i32 noundef %13, ptr noundef nonnull %18, ptr noundef nonnull %19, i32 noundef %16, i32 noundef 0, i32 noundef %20, i32 noundef 0)
  %.not92 = icmp eq ptr %21, null
  br i1 %.not92, label %22, label %40

22:                                               ; preds = %17
  %23 = load i32, ptr %12, align 4
  %24 = load i32, ptr %14, align 8
  %25 = tail call i32 @conversation_pt_to_conversation_type(i32 noundef %24)
  %26 = load i32, ptr %6, align 4
  %27 = tail call ptr @conversation_new(i32 noundef %23, ptr noundef nonnull %18, ptr noundef nonnull %19, i32 noundef %25, i32 noundef 0, i32 noundef %26, i32 noundef 0)
  br label %40

28:                                               ; preds = %4
  %29 = getelementptr inbounds nuw i8, ptr %1, i64 208
  %30 = getelementptr inbounds nuw i8, ptr %1, i64 232
  %31 = getelementptr inbounds nuw i8, ptr %1, i64 288
  %32 = load i32, ptr %31, align 8
  %33 = tail call ptr @find_conversation(i32 noundef %13, ptr noundef nonnull %29, ptr noundef nonnull %30, i32 noundef %16, i32 noundef 0, i32 noundef %32, i32 noundef 0)
  %.not = icmp eq ptr %33, null
  br i1 %.not, label %34, label %40

34:                                               ; preds = %28
  %35 = load i32, ptr %12, align 4
  %36 = load i32, ptr %14, align 8
  %37 = tail call i32 @conversation_pt_to_conversation_type(i32 noundef %36)
  %38 = load i32, ptr %31, align 8
  %39 = tail call ptr @conversation_new(i32 noundef %35, ptr noundef nonnull %29, ptr noundef nonnull %30, i32 noundef %37, i32 noundef 0, i32 noundef %38, i32 noundef 0)
  br label %40

40:                                               ; preds = %28, %34, %17, %22
  %.084 = phi ptr [ %21, %17 ], [ %27, %22 ], [ %33, %28 ], [ %39, %34 ]
  %41 = load i32, ptr @proto_rtmpt, align 4
  %42 = tail call ptr @conversation_get_proto_data(ptr noundef %.084, i32 noundef %41)
  %.not93 = icmp eq ptr %42, null
  br i1 %.not93, label %43, label %45

43:                                               ; preds = %40
  %44 = tail call fastcc ptr @rtmpt_init_rconv(ptr noundef %.084)
  br label %45

45:                                               ; preds = %43, %40
  %.086 = phi ptr [ %42, %40 ], [ %44, %43 ]
  %46 = xor i32 %11, 1
  %47 = zext nneg i32 %46 to i64
  %48 = getelementptr [2 x ptr], ptr %.086, i64 0, i64 %47
  %49 = load ptr, ptr %48, align 8
  %50 = getelementptr inbounds nuw i8, ptr %1, i64 20
  %51 = load i32, ptr %50, align 4
  %52 = tail call ptr @wmem_tree_lookup32_le(ptr noundef %49, i32 noundef %51)
  %53 = ptrtoint ptr %52 to i64
  %54 = trunc i64 %53 to i32
  %55 = add i32 %54, 1
  %56 = icmp ult i32 %55, 2
  %or.cond = select i1 %10, i1 %56, i1 false
  %57 = icmp eq i32 %5, 17
  %or.cond3 = select i1 %or.cond, i1 %57, i1 false
  br i1 %or.cond3, label %62, label %58

58:                                               ; preds = %45
  %59 = icmp eq i32 %5, 1
  %or.cond5 = select i1 %10, i1 true, i1 %59
  br i1 %or.cond5, label %60, label %62

60:                                               ; preds = %58
  %61 = add i32 %5, -1
  br label %62

62:                                               ; preds = %45, %60, %58
  %63 = phi i1 [ true, %60 ], [ false, %58 ], [ true, %45 ]
  %.083 = phi i32 [ 1, %60 ], [ 0, %58 ], [ 17, %45 ]
  %.082 = phi i32 [ %61, %60 ], [ %5, %58 ], [ 0, %45 ]
  %64 = zext i1 %10 to i64
  %65 = getelementptr [2 x ptr], ptr %.086, i64 0, i64 %64
  %66 = load ptr, ptr %65, align 8
  %67 = load i32, ptr %50, align 4
  %68 = tail call ptr @wmem_tree_lookup32(ptr noundef %66, i32 noundef %67)
  %69 = ptrtoint ptr %68 to i64
  %70 = trunc i64 %69 to i32
  %71 = icmp eq i32 %70, 0
  br i1 %71, label %72, label %83

72:                                               ; preds = %62
  %73 = load ptr, ptr %65, align 8
  %74 = load i32, ptr %50, align 4
  %75 = tail call ptr @wmem_tree_lookup32_le(ptr noundef %73, i32 noundef %74)
  %76 = ptrtoint ptr %75 to i64
  %77 = trunc i64 %76 to i32
  %78 = add i32 %.082, %77
  %79 = load ptr, ptr %65, align 8
  %80 = load i32, ptr %50, align 4
  %81 = zext i32 %78 to i64
  %82 = inttoptr i64 %81 to ptr
  tail call void @wmem_tree_insert32(ptr noundef %79, i32 noundef %80, ptr noundef %82)
  br label %83

83:                                               ; preds = %72, %62
  %.085 = phi i32 [ %78, %72 ], [ %70, %62 ]
  %reass.sub = sub i32 %.085, %.082
  %84 = add i32 %reass.sub, 1
  %85 = icmp slt i32 %.082, 1
  br i1 %85, label %91, label %86

86:                                               ; preds = %83
  br i1 %63, label %87, label %89

87:                                               ; preds = %86
  %88 = tail call ptr @tvb_new_subset_length(ptr noundef %0, i32 noundef %.083, i32 noundef %.082)
  br label %89

89:                                               ; preds = %86, %87
  %.sink = phi ptr [ %88, %87 ], [ %0, %86 ]
  tail call fastcc void @dissect_rtmpt_common(ptr noundef %.sink, ptr noundef %1, ptr noundef %2, ptr noundef %.086, i32 noundef %11, i32 noundef %84, i32 noundef %55)
  %90 = tail call i32 @tvb_captured_length(ptr noundef %0)
  br label %91

91:                                               ; preds = %83, %89
  %.0 = phi i32 [ %90, %89 ], [ %.083, %83 ]
  ret i32 %.0
}